target datalayout = "e-m:e-p270:32:32-p271:32:32-p272:64:64-i64:64-i128:128-f80:128-n8:16:32:64-S128"
target triple = "x86_64-unknown-linux-gnu"

%class.b3Vector3 = type { %union.anon }
%union.anon = type { [4 x float] }
%class.b3GpuRigidBodyPipeline = type { ptr, ptr }
%struct.b3GpuRigidBodyPipelineInternalData = type { ptr, ptr, ptr, ptr, ptr, ptr, ptr, ptr, ptr, ptr, ptr, ptr, ptr, ptr, %class.b3AlignedObjectArray, ptr, ptr, %class.b3AlignedObjectArray.7, %class.b3AlignedObjectArray.11, i32, ptr, %class.b3Vector3, %struct.b3Config }
%class.b3AlignedObjectArray = type <{ %class.b3AlignedAllocator, [3 x i8], i32, i32, [4 x i8], ptr, i8, [7 x i8] }>
%class.b3AlignedAllocator = type { i8 }
%class.b3AlignedObjectArray.7 = type <{ %class.b3AlignedAllocator.8, [3 x i8], i32, i32, [4 x i8], ptr, i8, [7 x i8] }>
%class.b3AlignedAllocator.8 = type { i8 }
%class.b3AlignedObjectArray.11 = type <{ %class.b3AlignedAllocator.12, [3 x i8], i32, i32, [4 x i8], ptr, i8, [7 x i8] }>
%class.b3AlignedAllocator.12 = type { i8 }
%struct.b3Config = type { i32, i32, i32, i32, i32, i32, i32, i32, i32, i32, i32, i32 }
%class.b3GpuNarrowPhase = type { ptr, ptr, i32, i32, i32, ptr, ptr, ptr }

; Function Attrs: mustprogress nounwind uwtable
define linkonce_odr dso_local noundef ptr @_ZN16b3GpuNarrowPhase15getInternalDataEv(ptr noundef nonnull align 8 dereferenceable(56) %this) #6 comdat align 2 {
entry:
  %this.addr = alloca ptr, align 8
  store ptr %this, ptr %this.addr, align 8
  %this1 = load ptr, ptr %this.addr, align 8
  %m_data = getelementptr inbounds %class.b3GpuNarrowPhase, ptr %this1, i32 0, i32 1
  %0 = load ptr, ptr %m_data, align 8
  ret ptr %0
}

; Function Attrs: mustprogress uwtable
define dso_local noundef i32 @_ZNK22b3GpuRigidBodyPipeline12getNumBodiesEv(ptr noundef nonnull align 8 dereferenceable(16) %this) #0 align 2 {
entry:
  %this.addr = alloca ptr, align 8
  store ptr %this, ptr %this.addr, align 8
  %this1 = load ptr, ptr %this.addr, align 8
  %m_data = getelementptr inbounds %class.b3GpuRigidBodyPipeline, ptr %this1, i32 0, i32 1
  %0 = load ptr, ptr %m_data, align 8
  %m_narrowphase = getelementptr inbounds %struct.b3GpuRigidBodyPipelineInternalData, ptr %0, i32 0, i32 20
  %1 = load ptr, ptr %m_narrowphase, align 8
  %call = call noundef i32 @_ZNK16b3GpuNarrowPhase17getNumRigidBodiesEv(ptr noundef nonnull align 8 dereferenceable(56) %1)
  ret i32 %call
}

; Function Attrs: mustprogress uwtable
define dso_local void @_ZN22b3GpuRigidBodyPipeline8castRaysERK20b3AlignedObjectArrayI9b3RayInfoERS0_I8b3RayHitE(ptr noundef nonnull align 8 dereferenceable(16) %this, ptr noundef nonnull align 1 %rays, ptr noundef nonnull align 1 %hitResults) #0 align 2 {
entry:
  %this.addr = alloca ptr, align 8
  %rays.addr = alloca ptr, align 8
  %hitResults.addr = alloca ptr, align 8
  store ptr %this, ptr %this.addr, align 8
  store ptr %rays, ptr %rays.addr, align 8
  store ptr %hitResults, ptr %hitResults.addr, align 8
  %this1 = load ptr, ptr %this.addr, align 8
  %m_data = getelementptr inbounds %class.b3GpuRigidBodyPipeline, ptr %this1, i32 0, i32 1
  %0 = load ptr, ptr %m_data, align 8
  %m_raycaster = getelementptr inbounds %struct.b3GpuRigidBodyPipelineInternalData, ptr %0, i32 0, i32 10
  %1 = load ptr, ptr %m_raycaster, align 16
  %2 = load ptr, ptr %rays.addr, align 8
  %3 = load ptr, ptr %hitResults.addr, align 8
  %call = call noundef i32 @_ZNK22b3GpuRigidBodyPipeline12getNumBodiesEv(ptr noundef nonnull align 8 dereferenceable(16) %this1)
  %m_data2 = getelementptr inbounds %class.b3GpuRigidBodyPipeline, ptr %this1, i32 0, i32 1
  %4 = load ptr, ptr %m_data2, align 8
  %m_narrowphase = getelementptr inbounds %struct.b3GpuRigidBodyPipelineInternalData, ptr %4, i32 0, i32 20
  %5 = load ptr, ptr %m_narrowphase, align 8
  %call3 = call noundef ptr @_ZNK16b3GpuNarrowPhase12getBodiesCpuEv(ptr noundef nonnull align 8 dereferenceable(56) %5)
  %m_data4 = getelementptr inbounds %class.b3GpuRigidBodyPipeline, ptr %this1, i32 0, i32 1
  %6 = load ptr, ptr %m_data4, align 8
  %m_narrowphase5 = getelementptr inbounds %struct.b3GpuRigidBodyPipelineInternalData, ptr %6, i32 0, i32 20
  %7 = load ptr, ptr %m_narrowphase5, align 8
  %call6 = call noundef i32 @_ZNK16b3GpuNarrowPhase20getNumCollidablesGpuEv(ptr noundef nonnull align 8 dereferenceable(56) %7)
  %m_data7 = getelementptr inbounds %class.b3GpuRigidBodyPipeline, ptr %this1, i32 0, i32 1
  %8 = load ptr, ptr %m_data7, align 8
  %m_narrowphase8 = getelementptr inbounds %struct.b3GpuRigidBodyPipelineInternalData, ptr %8, i32 0, i32 20
  %9 = load ptr, ptr %m_narrowphase8, align 8
  %call9 = call noundef ptr @_ZNK16b3GpuNarrowPhase17getCollidablesCpuEv(ptr noundef nonnull align 8 dereferenceable(56) %9)
  %m_data10 = getelementptr inbounds %class.b3GpuRigidBodyPipeline, ptr %this1, i32 0, i32 1
  %10 = load ptr, ptr %m_data10, align 8
  %m_narrowphase11 = getelementptr inbounds %struct.b3GpuRigidBodyPipelineInternalData, ptr %10, i32 0, i32 20
  %11 = load ptr, ptr %m_narrowphase11, align 8
  %call12 = call noundef ptr @_ZN16b3GpuNarrowPhase15getInternalDataEv(ptr noundef nonnull align 8 dereferenceable(56) %11)
  %m_data13 = getelementptr inbounds %class.b3GpuRigidBodyPipeline, ptr %this1, i32 0, i32 1
  %12 = load ptr, ptr %m_data13, align 8
  %m_broadphaseSap = getelementptr inbounds %struct.b3GpuRigidBodyPipelineInternalData, ptr %12, i32 0, i32 11
  %13 = load ptr, ptr %m_broadphaseSap, align 8
  call void @_ZN12b3GpuRaycast8castRaysERK20b3AlignedObjectArrayI9b3RayInfoERS0_I8b3RayHitEiPK15b3RigidBodyDataiPK12b3CollidablePK28b3GpuNarrowPhaseInternalDataP24b3GpuBroadphaseInterface(ptr noundef nonnull align 8 dereferenceable(16) %1, ptr noundef nonnull align 1 %2, ptr noundef nonnull align 1 %3, i32 noundef %call, ptr noundef %call3, i32 noundef %call6, ptr noundef %call9, ptr noundef %call12, ptr noundef %13)
  ret void
}