; Function Attrs: mustprogress uwtable
define dso_local void @_ZN22b3GpuRigidBodyPipeline8castRaysERK20b3AlignedObjectArrayI9b3RayInfoERS0_I8b3RayHitE(ptr nocapture noundef nonnull readonly align 8 dereferenceable(16) %this, ptr noundef nonnull align 1 %rays, ptr noundef nonnull align 1 %hitResults) local_unnamed_addr #2 align 2 {
entry:
  %m_data = getelementptr inbounds i8, ptr %this, i64 8
  %0 = load ptr, ptr %m_data, align 8
  %m_raycaster = getelementptr inbounds i8, ptr %0, i64 80
  %1 = load ptr, ptr %m_raycaster, align 16
  %m_narrowphase.i = getelementptr inbounds i8, ptr %0, i64 232
  %2 = load ptr, ptr %m_narrowphase.i, align 8
  %call.i = tail call noundef i32 @_ZNK16b3GpuNarrowPhase17getNumRigidBodiesEv(ptr noundef nonnull align 8 dereferenceable(56) %2)
  %3 = load ptr, ptr %m_data, align 8
  %m_narrowphase = getelementptr inbounds i8, ptr %3, i64 232
  %4 = load ptr, ptr %m_narrowphase, align 8
  %call3 = tail call noundef ptr @_ZNK16b3GpuNarrowPhase12getBodiesCpuEv(ptr noundef nonnull align 8 dereferenceable(56) %4)
  %5 = load ptr, ptr %m_data, align 8
  %m_narrowphase5 = getelementptr inbounds i8, ptr %5, i64 232
  %6 = load ptr, ptr %m_narrowphase5, align 8
  %call6 = tail call noundef i32 @_ZNK16b3GpuNarrowPhase20getNumCollidablesGpuEv(ptr noundef nonnull align 8 dereferenceable(56) %6)
  %7 = load ptr, ptr %m_data, align 8
  %m_narrowphase8 = getelementptr inbounds i8, ptr %7, i64 232
  %8 = load ptr, ptr %m_narrowphase8, align 8
  %call9 = tail call noundef ptr @_ZNK16b3GpuNarrowPhase17getCollidablesCpuEv(ptr noundef nonnull align 8 dereferenceable(56) %8)
  %9 = load ptr, ptr %m_data, align 8
  %m_narrowphase11 = getelementptr inbounds i8, ptr %9, i64 232
  %10 = load ptr, ptr %m_narrowphase11, align 8
  %m_data.i1 = getelementptr inbounds i8, ptr %10, i64 8
  %11 = load ptr, ptr %m_data.i1, align 8
  %m_broadphaseSap = getelementptr inbounds i8, ptr %9, i64 88
  %12 = load ptr, ptr %m_broadphaseSap, align 8
  tail call void @_ZN12b3GpuRaycast8castRaysERK20b3AlignedObjectArrayI9b3RayInfoERS0_I8b3RayHitEiPK15b3RigidBodyDataiPK12b3CollidablePK28b3GpuNarrowPhaseInternalDataP24b3GpuBroadphaseInterface(ptr noundef nonnull align 8 dereferenceable(16) %1, ptr noundef nonnull align 1 %rays, ptr noundef nonnull align 1 %hitResults, i32 noundef %call.i, ptr noundef %call3, i32 noundef %call6, ptr noundef %call9, ptr noundef %11, ptr noundef %12)
  ret void
}